ARM GAS  /tmp/ccXVqOtp.s 			page 1


   1              		.cpu cortex-m4
   2              		.eabi_attribute 27, 1
   3              		.eabi_attribute 28, 1
   4              		.eabi_attribute 20, 1
   5              		.eabi_attribute 21, 1
   6              		.eabi_attribute 23, 3
   7              		.eabi_attribute 24, 1
   8              		.eabi_attribute 25, 1
   9              		.eabi_attribute 26, 1
  10              		.eabi_attribute 30, 1
  11              		.eabi_attribute 34, 1
  12              		.eabi_attribute 18, 4
  13              		.file	"gpio.c"
  14              		.text
  15              	.Ltext0:
  16              		.cfi_sections	.debug_frame
  17              		.section	.text.MX_GPIO_Init,"ax",%progbits
  18              		.align	1
  19              		.global	MX_GPIO_Init
  20              		.arch armv7e-m
  21              		.syntax unified
  22              		.thumb
  23              		.thumb_func
  24              		.fpu fpv4-sp-d16
  26              	MX_GPIO_Init:
  27              	.LFB216:
  28              		.file 1 "Core/Src/gpio.c"
   1:Core/Src/gpio.c **** /* USER CODE BEGIN Header */
   2:Core/Src/gpio.c **** /**
   3:Core/Src/gpio.c ****   ******************************************************************************
   4:Core/Src/gpio.c ****   * @file    gpio.c
   5:Core/Src/gpio.c ****   * @brief   This file provides code for the configuration
   6:Core/Src/gpio.c ****   *          of all used GPIO pins.
   7:Core/Src/gpio.c ****   ******************************************************************************
   8:Core/Src/gpio.c ****   * @attention
   9:Core/Src/gpio.c ****   *
  10:Core/Src/gpio.c ****   * Copyright (c) 2022 STMicroelectronics.
  11:Core/Src/gpio.c ****   * All rights reserved.
  12:Core/Src/gpio.c ****   *
  13:Core/Src/gpio.c ****   * This software is licensed under terms that can be found in the LICENSE file
  14:Core/Src/gpio.c ****   * in the root directory of this software component.
  15:Core/Src/gpio.c ****   * If no LICENSE file comes with this software, it is provided AS-IS.
  16:Core/Src/gpio.c ****   *
  17:Core/Src/gpio.c ****   ******************************************************************************
  18:Core/Src/gpio.c ****   */
  19:Core/Src/gpio.c **** /* USER CODE END Header */
  20:Core/Src/gpio.c **** 
  21:Core/Src/gpio.c **** /* Includes ------------------------------------------------------------------*/
  22:Core/Src/gpio.c **** #include "gpio.h"
  23:Core/Src/gpio.c **** 
  24:Core/Src/gpio.c **** /* USER CODE BEGIN 0 */
  25:Core/Src/gpio.c **** 
  26:Core/Src/gpio.c **** /* USER CODE END 0 */
  27:Core/Src/gpio.c **** 
  28:Core/Src/gpio.c **** /*----------------------------------------------------------------------------*/
  29:Core/Src/gpio.c **** /* Configure GPIO                                                             */
  30:Core/Src/gpio.c **** /*----------------------------------------------------------------------------*/
ARM GAS  /tmp/ccXVqOtp.s 			page 2


  31:Core/Src/gpio.c **** /* USER CODE BEGIN 1 */
  32:Core/Src/gpio.c **** 
  33:Core/Src/gpio.c **** /* USER CODE END 1 */
  34:Core/Src/gpio.c **** 
  35:Core/Src/gpio.c **** /** Configure pins as
  36:Core/Src/gpio.c ****         * Analog
  37:Core/Src/gpio.c ****         * Input
  38:Core/Src/gpio.c ****         * Output
  39:Core/Src/gpio.c ****         * EVENT_OUT
  40:Core/Src/gpio.c ****         * EXTI
  41:Core/Src/gpio.c **** */
  42:Core/Src/gpio.c **** void MX_GPIO_Init(void)
  43:Core/Src/gpio.c **** {
  29              		.loc 1 43 1 view -0
  30              		.cfi_startproc
  31              		@ args = 0, pretend = 0, frame = 32
  32              		@ frame_needed = 0, uses_anonymous_args = 0
  33 0000 2DE9F041 		push	{r4, r5, r6, r7, r8, lr}
  34              	.LCFI0:
  35              		.cfi_def_cfa_offset 24
  36              		.cfi_offset 4, -24
  37              		.cfi_offset 5, -20
  38              		.cfi_offset 6, -16
  39              		.cfi_offset 7, -12
  40              		.cfi_offset 8, -8
  41              		.cfi_offset 14, -4
  42 0004 88B0     		sub	sp, sp, #32
  43              	.LCFI1:
  44              		.cfi_def_cfa_offset 56
  44:Core/Src/gpio.c **** 
  45:Core/Src/gpio.c ****   GPIO_InitTypeDef GPIO_InitStruct = {0};
  45              		.loc 1 45 3 view .LVU1
  46              		.loc 1 45 20 is_stmt 0 view .LVU2
  47 0006 0024     		movs	r4, #0
  48 0008 0394     		str	r4, [sp, #12]
  49 000a 0494     		str	r4, [sp, #16]
  50 000c 0594     		str	r4, [sp, #20]
  51 000e 0694     		str	r4, [sp, #24]
  52 0010 0794     		str	r4, [sp, #28]
  46:Core/Src/gpio.c **** 
  47:Core/Src/gpio.c ****   /* GPIO Ports Clock Enable */
  48:Core/Src/gpio.c ****   __HAL_RCC_GPIOC_CLK_ENABLE();
  53              		.loc 1 48 3 is_stmt 1 view .LVU3
  54              	.LBB2:
  55              		.loc 1 48 3 view .LVU4
  56 0012 0094     		str	r4, [sp]
  57              		.loc 1 48 3 view .LVU5
  58 0014 2F4B     		ldr	r3, .L3
  59 0016 1A6B     		ldr	r2, [r3, #48]
  60 0018 42F00402 		orr	r2, r2, #4
  61 001c 1A63     		str	r2, [r3, #48]
  62              		.loc 1 48 3 view .LVU6
  63 001e 1A6B     		ldr	r2, [r3, #48]
  64 0020 02F00402 		and	r2, r2, #4
  65 0024 0092     		str	r2, [sp]
  66              		.loc 1 48 3 view .LVU7
  67 0026 009A     		ldr	r2, [sp]
ARM GAS  /tmp/ccXVqOtp.s 			page 3


  68              	.LBE2:
  69              		.loc 1 48 3 view .LVU8
  49:Core/Src/gpio.c ****   __HAL_RCC_GPIOA_CLK_ENABLE();
  70              		.loc 1 49 3 view .LVU9
  71              	.LBB3:
  72              		.loc 1 49 3 view .LVU10
  73 0028 0194     		str	r4, [sp, #4]
  74              		.loc 1 49 3 view .LVU11
  75 002a 1A6B     		ldr	r2, [r3, #48]
  76 002c 42F00102 		orr	r2, r2, #1
  77 0030 1A63     		str	r2, [r3, #48]
  78              		.loc 1 49 3 view .LVU12
  79 0032 1A6B     		ldr	r2, [r3, #48]
  80 0034 02F00102 		and	r2, r2, #1
  81 0038 0192     		str	r2, [sp, #4]
  82              		.loc 1 49 3 view .LVU13
  83 003a 019A     		ldr	r2, [sp, #4]
  84              	.LBE3:
  85              		.loc 1 49 3 view .LVU14
  50:Core/Src/gpio.c ****   __HAL_RCC_GPIOB_CLK_ENABLE();
  86              		.loc 1 50 3 view .LVU15
  87              	.LBB4:
  88              		.loc 1 50 3 view .LVU16
  89 003c 0294     		str	r4, [sp, #8]
  90              		.loc 1 50 3 view .LVU17
  91 003e 1A6B     		ldr	r2, [r3, #48]
  92 0040 42F00202 		orr	r2, r2, #2
  93 0044 1A63     		str	r2, [r3, #48]
  94              		.loc 1 50 3 view .LVU18
  95 0046 1B6B     		ldr	r3, [r3, #48]
  96 0048 03F00203 		and	r3, r3, #2
  97 004c 0293     		str	r3, [sp, #8]
  98              		.loc 1 50 3 view .LVU19
  99 004e 029B     		ldr	r3, [sp, #8]
 100              	.LBE4:
 101              		.loc 1 50 3 view .LVU20
  51:Core/Src/gpio.c **** 
  52:Core/Src/gpio.c ****   /*Configure GPIO pin Output Level */
  53:Core/Src/gpio.c ****   HAL_GPIO_WritePin(GPIOC, GPIO_PIN_13|GPIO_PIN_14|GPIO_PIN_15, GPIO_PIN_RESET);
 102              		.loc 1 53 3 view .LVU21
 103 0050 DFF88C80 		ldr	r8, .L3+12
 104 0054 2246     		mov	r2, r4
 105 0056 4FF46041 		mov	r1, #57344
 106 005a 4046     		mov	r0, r8
 107 005c FFF7FEFF 		bl	HAL_GPIO_WritePin
 108              	.LVL0:
  54:Core/Src/gpio.c **** 
  55:Core/Src/gpio.c ****   /*Configure GPIO pin Output Level */
  56:Core/Src/gpio.c ****   HAL_GPIO_WritePin(GPIOA, GPIO_PIN_1|GPIO_PIN_11|GPIO_PIN_12, GPIO_PIN_RESET);
 109              		.loc 1 56 3 view .LVU22
 110 0060 1D4F     		ldr	r7, .L3+4
 111 0062 2246     		mov	r2, r4
 112 0064 41F60201 		movw	r1, #6146
 113 0068 3846     		mov	r0, r7
 114 006a FFF7FEFF 		bl	HAL_GPIO_WritePin
 115              	.LVL1:
  57:Core/Src/gpio.c **** 
ARM GAS  /tmp/ccXVqOtp.s 			page 4


  58:Core/Src/gpio.c ****   /*Configure GPIO pin Output Level */
  59:Core/Src/gpio.c ****   HAL_GPIO_WritePin(GPIOB, GPIO_PIN_1|GPIO_PIN_9, GPIO_PIN_RESET);
 116              		.loc 1 59 3 view .LVU23
 117 006e 1B4D     		ldr	r5, .L3+8
 118 0070 2246     		mov	r2, r4
 119 0072 40F20221 		movw	r1, #514
 120 0076 2846     		mov	r0, r5
 121 0078 FFF7FEFF 		bl	HAL_GPIO_WritePin
 122              	.LVL2:
  60:Core/Src/gpio.c **** 
  61:Core/Src/gpio.c ****   /*Configure GPIO pins : PC13 PC14 PC15 */
  62:Core/Src/gpio.c ****   GPIO_InitStruct.Pin = GPIO_PIN_13|GPIO_PIN_14|GPIO_PIN_15;
 123              		.loc 1 62 3 view .LVU24
 124              		.loc 1 62 23 is_stmt 0 view .LVU25
 125 007c 4FF46043 		mov	r3, #57344
 126 0080 0393     		str	r3, [sp, #12]
  63:Core/Src/gpio.c ****   GPIO_InitStruct.Mode = GPIO_MODE_OUTPUT_PP;
 127              		.loc 1 63 3 is_stmt 1 view .LVU26
 128              		.loc 1 63 24 is_stmt 0 view .LVU27
 129 0082 0126     		movs	r6, #1
 130 0084 0496     		str	r6, [sp, #16]
  64:Core/Src/gpio.c ****   GPIO_InitStruct.Pull = GPIO_NOPULL;
 131              		.loc 1 64 3 is_stmt 1 view .LVU28
 132              		.loc 1 64 24 is_stmt 0 view .LVU29
 133 0086 0594     		str	r4, [sp, #20]
  65:Core/Src/gpio.c ****   GPIO_InitStruct.Speed = GPIO_SPEED_FREQ_LOW;
 134              		.loc 1 65 3 is_stmt 1 view .LVU30
 135              		.loc 1 65 25 is_stmt 0 view .LVU31
 136 0088 0694     		str	r4, [sp, #24]
  66:Core/Src/gpio.c ****   HAL_GPIO_Init(GPIOC, &GPIO_InitStruct);
 137              		.loc 1 66 3 is_stmt 1 view .LVU32
 138 008a 03A9     		add	r1, sp, #12
 139 008c 4046     		mov	r0, r8
 140 008e FFF7FEFF 		bl	HAL_GPIO_Init
 141              	.LVL3:
  67:Core/Src/gpio.c **** 
  68:Core/Src/gpio.c ****   /*Configure GPIO pins : PA1 PA11 PA12 */
  69:Core/Src/gpio.c ****   GPIO_InitStruct.Pin = GPIO_PIN_1|GPIO_PIN_11|GPIO_PIN_12;
 142              		.loc 1 69 3 view .LVU33
 143              		.loc 1 69 23 is_stmt 0 view .LVU34
 144 0092 41F60203 		movw	r3, #6146
 145 0096 0393     		str	r3, [sp, #12]
  70:Core/Src/gpio.c ****   GPIO_InitStruct.Mode = GPIO_MODE_OUTPUT_PP;
 146              		.loc 1 70 3 is_stmt 1 view .LVU35
 147              		.loc 1 70 24 is_stmt 0 view .LVU36
 148 0098 0496     		str	r6, [sp, #16]
  71:Core/Src/gpio.c ****   GPIO_InitStruct.Pull = GPIO_NOPULL;
 149              		.loc 1 71 3 is_stmt 1 view .LVU37
 150              		.loc 1 71 24 is_stmt 0 view .LVU38
 151 009a 0594     		str	r4, [sp, #20]
  72:Core/Src/gpio.c ****   GPIO_InitStruct.Speed = GPIO_SPEED_FREQ_LOW;
 152              		.loc 1 72 3 is_stmt 1 view .LVU39
 153              		.loc 1 72 25 is_stmt 0 view .LVU40
 154 009c 0694     		str	r4, [sp, #24]
  73:Core/Src/gpio.c ****   HAL_GPIO_Init(GPIOA, &GPIO_InitStruct);
 155              		.loc 1 73 3 is_stmt 1 view .LVU41
 156 009e 03A9     		add	r1, sp, #12
ARM GAS  /tmp/ccXVqOtp.s 			page 5


 157 00a0 3846     		mov	r0, r7
 158 00a2 FFF7FEFF 		bl	HAL_GPIO_Init
 159              	.LVL4:
  74:Core/Src/gpio.c **** 
  75:Core/Src/gpio.c ****   /*Configure GPIO pins : PB1 PB9 */
  76:Core/Src/gpio.c ****   GPIO_InitStruct.Pin = GPIO_PIN_1|GPIO_PIN_9;
 160              		.loc 1 76 3 view .LVU42
 161              		.loc 1 76 23 is_stmt 0 view .LVU43
 162 00a6 40F20223 		movw	r3, #514
 163 00aa 0393     		str	r3, [sp, #12]
  77:Core/Src/gpio.c ****   GPIO_InitStruct.Mode = GPIO_MODE_OUTPUT_PP;
 164              		.loc 1 77 3 is_stmt 1 view .LVU44
 165              		.loc 1 77 24 is_stmt 0 view .LVU45
 166 00ac 0496     		str	r6, [sp, #16]
  78:Core/Src/gpio.c ****   GPIO_InitStruct.Pull = GPIO_NOPULL;
 167              		.loc 1 78 3 is_stmt 1 view .LVU46
 168              		.loc 1 78 24 is_stmt 0 view .LVU47
 169 00ae 0594     		str	r4, [sp, #20]
  79:Core/Src/gpio.c ****   GPIO_InitStruct.Speed = GPIO_SPEED_FREQ_LOW;
 170              		.loc 1 79 3 is_stmt 1 view .LVU48
 171              		.loc 1 79 25 is_stmt 0 view .LVU49
 172 00b0 0694     		str	r4, [sp, #24]
  80:Core/Src/gpio.c ****   HAL_GPIO_Init(GPIOB, &GPIO_InitStruct);
 173              		.loc 1 80 3 is_stmt 1 view .LVU50
 174 00b2 03A9     		add	r1, sp, #12
 175 00b4 2846     		mov	r0, r5
 176 00b6 FFF7FEFF 		bl	HAL_GPIO_Init
 177              	.LVL5:
  81:Core/Src/gpio.c **** 
  82:Core/Src/gpio.c ****   /*Configure GPIO pin : PB2 */
  83:Core/Src/gpio.c ****   GPIO_InitStruct.Pin = GPIO_PIN_2;
 178              		.loc 1 83 3 view .LVU51
 179              		.loc 1 83 23 is_stmt 0 view .LVU52
 180 00ba 0423     		movs	r3, #4
 181 00bc 0393     		str	r3, [sp, #12]
  84:Core/Src/gpio.c ****   GPIO_InitStruct.Mode = GPIO_MODE_IT_RISING;
 182              		.loc 1 84 3 is_stmt 1 view .LVU53
 183              		.loc 1 84 24 is_stmt 0 view .LVU54
 184 00be 4FF48813 		mov	r3, #1114112
 185 00c2 0493     		str	r3, [sp, #16]
  85:Core/Src/gpio.c ****   GPIO_InitStruct.Pull = GPIO_NOPULL;
 186              		.loc 1 85 3 is_stmt 1 view .LVU55
 187              		.loc 1 85 24 is_stmt 0 view .LVU56
 188 00c4 0594     		str	r4, [sp, #20]
  86:Core/Src/gpio.c ****   HAL_GPIO_Init(GPIOB, &GPIO_InitStruct);
 189              		.loc 1 86 3 is_stmt 1 view .LVU57
 190 00c6 03A9     		add	r1, sp, #12
 191 00c8 2846     		mov	r0, r5
 192 00ca FFF7FEFF 		bl	HAL_GPIO_Init
 193              	.LVL6:
  87:Core/Src/gpio.c **** 
  88:Core/Src/gpio.c **** }
 194              		.loc 1 88 1 is_stmt 0 view .LVU58
 195 00ce 08B0     		add	sp, sp, #32
 196              	.LCFI2:
 197              		.cfi_def_cfa_offset 24
 198              		@ sp needed
ARM GAS  /tmp/ccXVqOtp.s 			page 6


 199 00d0 BDE8F081 		pop	{r4, r5, r6, r7, r8, pc}
 200              	.L4:
 201              		.align	2
 202              	.L3:
 203 00d4 00380240 		.word	1073887232
 204 00d8 00000240 		.word	1073872896
 205 00dc 00040240 		.word	1073873920
 206 00e0 00080240 		.word	1073874944
 207              		.cfi_endproc
 208              	.LFE216:
 210              		.text
 211              	.Letext0:
 212              		.file 2 "/usr/lib/gcc/arm-none-eabi/9.2.1/include/stdint.h"
 213              		.file 3 "Drivers/CMSIS/Include/core_cm4.h"
 214              		.file 4 "Drivers/CMSIS/Device/ST/STM32F4xx/Include/system_stm32f4xx.h"
 215              		.file 5 "Drivers/CMSIS/Device/ST/STM32F4xx/Include/stm32f412cx.h"
 216              		.file 6 "Drivers/STM32F4xx_HAL_Driver/Inc/stm32f4xx_hal_gpio.h"
 217              		.file 7 "Drivers/STM32F4xx_HAL_Driver/Inc/stm32f4xx_hal.h"
ARM GAS  /tmp/ccXVqOtp.s 			page 7

