ARM GAS  /tmp/ccBRsSd4.s 			page 1


   1              		.cpu cortex-m4
   2              		.eabi_attribute 27, 1
   3              		.eabi_attribute 28, 1
   4              		.eabi_attribute 20, 1
   5              		.eabi_attribute 21, 1
   6              		.eabi_attribute 23, 3
   7              		.eabi_attribute 24, 1
   8              		.eabi_attribute 25, 1
   9              		.eabi_attribute 26, 1
  10              		.eabi_attribute 30, 1
  11              		.eabi_attribute 34, 1
  12              		.eabi_attribute 18, 4
  13              		.file	"LED_Driver.c"
  14              		.text
  15              	.Ltext0:
  16              		.cfi_sections	.debug_frame
  17              		.section	.text.ChangeLED,"ax",%progbits
  18              		.align	1
  19              		.global	ChangeLED
  20              		.arch armv7e-m
  21              		.syntax unified
  22              		.thumb
  23              		.thumb_func
  24              		.fpu fpv4-sp-d16
  26              	ChangeLED:
  27              	.LVL0:
  28              	.LFB216:
  29              		.file 1 "Core/Src/LED_Driver.c"
   1:Core/Src/LED_Driver.c **** /*
   2:Core/Src/LED_Driver.c ****  * LED_Driver.c
   3:Core/Src/LED_Driver.c ****  *
   4:Core/Src/LED_Driver.c ****  *  Created on: Feb 12, 2022
   5:Core/Src/LED_Driver.c ****  *      Author: leopi
   6:Core/Src/LED_Driver.c ****  */
   7:Core/Src/LED_Driver.c **** 
   8:Core/Src/LED_Driver.c **** #include "LED_Driver.h"
   9:Core/Src/LED_Driver.c **** //ハードウェア層
  10:Core/Src/LED_Driver.c **** //必要に応じてマクロ定義
  11:Core/Src/LED_Driver.c **** void ChangeLED(int mode)
  12:Core/Src/LED_Driver.c **** {
  30              		.loc 1 12 1 view -0
  31              		.cfi_startproc
  32              		@ args = 0, pretend = 0, frame = 0
  33              		@ frame_needed = 0, uses_anonymous_args = 0
  34              		.loc 1 12 1 is_stmt 0 view .LVU1
  35 0000 10B5     		push	{r4, lr}
  36              	.LCFI0:
  37              		.cfi_def_cfa_offset 8
  38              		.cfi_offset 4, -8
  39              		.cfi_offset 14, -4
  13:Core/Src/LED_Driver.c **** 	//Switch
  14:Core/Src/LED_Driver.c **** 	switch(mode){
  40              		.loc 1 14 2 is_stmt 1 view .LVU2
  41 0002 0728     		cmp	r0, #7
  42 0004 18D8     		bhi	.L1
  43 0006 DFE800F0 		tbb	[pc, r0]
  44              	.L4:
ARM GAS  /tmp/ccBRsSd4.s 			page 2


  45 000a 04       		.byte	(.L11-.L4)/2
  46 000b 18       		.byte	(.L10-.L4)/2
  47 000c 2C       		.byte	(.L9-.L4)/2
  48 000d 40       		.byte	(.L8-.L4)/2
  49 000e 54       		.byte	(.L7-.L4)/2
  50 000f 68       		.byte	(.L6-.L4)/2
  51 0010 7C       		.byte	(.L5-.L4)/2
  52 0011 90       		.byte	(.L3-.L4)/2
  53              		.p2align 1
  54              	.L11:
  15:Core/Src/LED_Driver.c **** 	//o左からD4,5,3. B9c9c8
  16:Core/Src/LED_Driver.c **** 	case 0:
  17:Core/Src/LED_Driver.c **** 		HAL_GPIO_WritePin(GPIOC, GPIO_PIN_13, GPIO_PIN_RESET);
  55              		.loc 1 17 3 view .LVU3
  56 0012 504C     		ldr	r4, .L13
  57 0014 0022     		movs	r2, #0
  58 0016 4FF40051 		mov	r1, #8192
  59 001a 2046     		mov	r0, r4
  60              	.LVL1:
  61              		.loc 1 17 3 is_stmt 0 view .LVU4
  62 001c FFF7FEFF 		bl	HAL_GPIO_WritePin
  63              	.LVL2:
  18:Core/Src/LED_Driver.c **** 		HAL_GPIO_WritePin(GPIOC, GPIO_PIN_14, GPIO_PIN_RESET);
  64              		.loc 1 18 3 is_stmt 1 view .LVU5
  65 0020 0022     		movs	r2, #0
  66 0022 4FF48041 		mov	r1, #16384
  67 0026 2046     		mov	r0, r4
  68 0028 FFF7FEFF 		bl	HAL_GPIO_WritePin
  69              	.LVL3:
  19:Core/Src/LED_Driver.c **** 		HAL_GPIO_WritePin(GPIOC, GPIO_PIN_15, GPIO_PIN_RESET);
  70              		.loc 1 19 3 view .LVU6
  71 002c 0022     		movs	r2, #0
  72 002e 4FF40041 		mov	r1, #32768
  73 0032 2046     		mov	r0, r4
  74 0034 FFF7FEFF 		bl	HAL_GPIO_WritePin
  75              	.LVL4:
  20:Core/Src/LED_Driver.c **** 		break;
  76              		.loc 1 20 3 view .LVU7
  77              	.L1:
  21:Core/Src/LED_Driver.c **** 	case 1:
  22:Core/Src/LED_Driver.c **** 		HAL_GPIO_WritePin(GPIOC, GPIO_PIN_13, GPIO_PIN_SET);
  23:Core/Src/LED_Driver.c **** 		HAL_GPIO_WritePin(GPIOC, GPIO_PIN_14, GPIO_PIN_RESET);
  24:Core/Src/LED_Driver.c **** 		HAL_GPIO_WritePin(GPIOC, GPIO_PIN_15, GPIO_PIN_RESET);
  25:Core/Src/LED_Driver.c **** 		break;
  26:Core/Src/LED_Driver.c **** 	case 2:
  27:Core/Src/LED_Driver.c **** 		HAL_GPIO_WritePin(GPIOC, GPIO_PIN_13, GPIO_PIN_RESET);
  28:Core/Src/LED_Driver.c **** 		HAL_GPIO_WritePin(GPIOC, GPIO_PIN_14, GPIO_PIN_SET);
  29:Core/Src/LED_Driver.c **** 		HAL_GPIO_WritePin(GPIOC, GPIO_PIN_15, GPIO_PIN_RESET);
  30:Core/Src/LED_Driver.c **** 
  31:Core/Src/LED_Driver.c **** 		break;
  32:Core/Src/LED_Driver.c **** 	case 3:
  33:Core/Src/LED_Driver.c **** 		HAL_GPIO_WritePin(GPIOC, GPIO_PIN_13, GPIO_PIN_SET);
  34:Core/Src/LED_Driver.c **** 		HAL_GPIO_WritePin(GPIOC, GPIO_PIN_14, GPIO_PIN_SET);
  35:Core/Src/LED_Driver.c **** 		HAL_GPIO_WritePin(GPIOC, GPIO_PIN_15, GPIO_PIN_RESET);
  36:Core/Src/LED_Driver.c **** 		break;
  37:Core/Src/LED_Driver.c **** 	case 4:
  38:Core/Src/LED_Driver.c **** 		HAL_GPIO_WritePin(GPIOC, GPIO_PIN_13, GPIO_PIN_RESET);
ARM GAS  /tmp/ccBRsSd4.s 			page 3


  39:Core/Src/LED_Driver.c **** 		HAL_GPIO_WritePin(GPIOC, GPIO_PIN_14, GPIO_PIN_RESET);
  40:Core/Src/LED_Driver.c **** 		HAL_GPIO_WritePin(GPIOC, GPIO_PIN_15, GPIO_PIN_SET);
  41:Core/Src/LED_Driver.c **** 		break;
  42:Core/Src/LED_Driver.c **** 	case 5:
  43:Core/Src/LED_Driver.c **** 		HAL_GPIO_WritePin(GPIOC, GPIO_PIN_13, GPIO_PIN_SET);
  44:Core/Src/LED_Driver.c **** 		HAL_GPIO_WritePin(GPIOC, GPIO_PIN_14, GPIO_PIN_RESET);
  45:Core/Src/LED_Driver.c **** 		HAL_GPIO_WritePin(GPIOC, GPIO_PIN_15, GPIO_PIN_SET);
  46:Core/Src/LED_Driver.c **** 		break;
  47:Core/Src/LED_Driver.c **** 	case 6:
  48:Core/Src/LED_Driver.c **** 		HAL_GPIO_WritePin(GPIOC, GPIO_PIN_13, GPIO_PIN_RESET);
  49:Core/Src/LED_Driver.c **** 		HAL_GPIO_WritePin(GPIOC, GPIO_PIN_14, GPIO_PIN_SET);
  50:Core/Src/LED_Driver.c **** 		HAL_GPIO_WritePin(GPIOC, GPIO_PIN_15, GPIO_PIN_SET);
  51:Core/Src/LED_Driver.c **** 
  52:Core/Src/LED_Driver.c **** 		break;
  53:Core/Src/LED_Driver.c **** 	case 7:
  54:Core/Src/LED_Driver.c **** 		HAL_GPIO_WritePin(GPIOC, GPIO_PIN_13, GPIO_PIN_SET);
  55:Core/Src/LED_Driver.c **** 		HAL_GPIO_WritePin(GPIOC, GPIO_PIN_14, GPIO_PIN_SET);
  56:Core/Src/LED_Driver.c **** 		HAL_GPIO_WritePin(GPIOC, GPIO_PIN_15, GPIO_PIN_SET);
  57:Core/Src/LED_Driver.c **** 
  58:Core/Src/LED_Driver.c **** 		break;
  59:Core/Src/LED_Driver.c **** 	default: break;
  60:Core/Src/LED_Driver.c **** 
  61:Core/Src/LED_Driver.c **** 	}
  62:Core/Src/LED_Driver.c **** }...
  78              		.loc 1 62 1 is_stmt 0 view .LVU8
  79 0038 10BD     		pop	{r4, pc}
  80              	.LVL5:
  81              	.L10:
  22:Core/Src/LED_Driver.c **** 		HAL_GPIO_WritePin(GPIOC, GPIO_PIN_13, GPIO_PIN_SET);
  82              		.loc 1 22 3 is_stmt 1 view .LVU9
  83 003a 464C     		ldr	r4, .L13
  84 003c 0122     		movs	r2, #1
  85 003e 4FF40051 		mov	r1, #8192
  86 0042 2046     		mov	r0, r4
  87              	.LVL6:
  22:Core/Src/LED_Driver.c **** 		HAL_GPIO_WritePin(GPIOC, GPIO_PIN_13, GPIO_PIN_SET);
  88              		.loc 1 22 3 is_stmt 0 view .LVU10
  89 0044 FFF7FEFF 		bl	HAL_GPIO_WritePin
  90              	.LVL7:
  23:Core/Src/LED_Driver.c **** 		HAL_GPIO_WritePin(GPIOC, GPIO_PIN_14, GPIO_PIN_RESET);
  91              		.loc 1 23 3 is_stmt 1 view .LVU11
  92 0048 0022     		movs	r2, #0
  93 004a 4FF48041 		mov	r1, #16384
  94 004e 2046     		mov	r0, r4
  95 0050 FFF7FEFF 		bl	HAL_GPIO_WritePin
  96              	.LVL8:
  24:Core/Src/LED_Driver.c **** 		HAL_GPIO_WritePin(GPIOC, GPIO_PIN_15, GPIO_PIN_RESET);
  97              		.loc 1 24 3 view .LVU12
  98 0054 0022     		movs	r2, #0
  99 0056 4FF40041 		mov	r1, #32768
 100 005a 2046     		mov	r0, r4
 101 005c FFF7FEFF 		bl	HAL_GPIO_WritePin
 102              	.LVL9:
  25:Core/Src/LED_Driver.c **** 		break;
 103              		.loc 1 25 3 view .LVU13
 104 0060 EAE7     		b	.L1
 105              	.LVL10:
ARM GAS  /tmp/ccBRsSd4.s 			page 4


 106              	.L9:
  27:Core/Src/LED_Driver.c **** 		HAL_GPIO_WritePin(GPIOC, GPIO_PIN_13, GPIO_PIN_RESET);
 107              		.loc 1 27 3 view .LVU14
 108 0062 3C4C     		ldr	r4, .L13
 109 0064 0022     		movs	r2, #0
 110 0066 4FF40051 		mov	r1, #8192
 111 006a 2046     		mov	r0, r4
 112              	.LVL11:
  27:Core/Src/LED_Driver.c **** 		HAL_GPIO_WritePin(GPIOC, GPIO_PIN_13, GPIO_PIN_RESET);
 113              		.loc 1 27 3 is_stmt 0 view .LVU15
 114 006c FFF7FEFF 		bl	HAL_GPIO_WritePin
 115              	.LVL12:
  28:Core/Src/LED_Driver.c **** 		HAL_GPIO_WritePin(GPIOC, GPIO_PIN_14, GPIO_PIN_SET);
 116              		.loc 1 28 3 is_stmt 1 view .LVU16
 117 0070 0122     		movs	r2, #1
 118 0072 4FF48041 		mov	r1, #16384
 119 0076 2046     		mov	r0, r4
 120 0078 FFF7FEFF 		bl	HAL_GPIO_WritePin
 121              	.LVL13:
  29:Core/Src/LED_Driver.c **** 		HAL_GPIO_WritePin(GPIOC, GPIO_PIN_15, GPIO_PIN_RESET);
 122              		.loc 1 29 3 view .LVU17
 123 007c 0022     		movs	r2, #0
 124 007e 4FF40041 		mov	r1, #32768
 125 0082 2046     		mov	r0, r4
 126 0084 FFF7FEFF 		bl	HAL_GPIO_WritePin
 127              	.LVL14:
  31:Core/Src/LED_Driver.c **** 		break;
 128              		.loc 1 31 3 view .LVU18
 129 0088 D6E7     		b	.L1
 130              	.LVL15:
 131              	.L8:
  33:Core/Src/LED_Driver.c **** 		HAL_GPIO_WritePin(GPIOC, GPIO_PIN_13, GPIO_PIN_SET);
 132              		.loc 1 33 3 view .LVU19
 133 008a 324C     		ldr	r4, .L13
 134 008c 0122     		movs	r2, #1
 135 008e 4FF40051 		mov	r1, #8192
 136 0092 2046     		mov	r0, r4
 137              	.LVL16:
  33:Core/Src/LED_Driver.c **** 		HAL_GPIO_WritePin(GPIOC, GPIO_PIN_13, GPIO_PIN_SET);
 138              		.loc 1 33 3 is_stmt 0 view .LVU20
 139 0094 FFF7FEFF 		bl	HAL_GPIO_WritePin
 140              	.LVL17:
  34:Core/Src/LED_Driver.c **** 		HAL_GPIO_WritePin(GPIOC, GPIO_PIN_14, GPIO_PIN_SET);
 141              		.loc 1 34 3 is_stmt 1 view .LVU21
 142 0098 0122     		movs	r2, #1
 143 009a 4FF48041 		mov	r1, #16384
 144 009e 2046     		mov	r0, r4
 145 00a0 FFF7FEFF 		bl	HAL_GPIO_WritePin
 146              	.LVL18:
  35:Core/Src/LED_Driver.c **** 		HAL_GPIO_WritePin(GPIOC, GPIO_PIN_15, GPIO_PIN_RESET);
 147              		.loc 1 35 3 view .LVU22
 148 00a4 0022     		movs	r2, #0
 149 00a6 4FF40041 		mov	r1, #32768
 150 00aa 2046     		mov	r0, r4
 151 00ac FFF7FEFF 		bl	HAL_GPIO_WritePin
 152              	.LVL19:
  36:Core/Src/LED_Driver.c **** 		break;
ARM GAS  /tmp/ccBRsSd4.s 			page 5


 153              		.loc 1 36 3 view .LVU23
 154 00b0 C2E7     		b	.L1
 155              	.LVL20:
 156              	.L7:
  38:Core/Src/LED_Driver.c **** 		HAL_GPIO_WritePin(GPIOC, GPIO_PIN_13, GPIO_PIN_RESET);
 157              		.loc 1 38 3 view .LVU24
 158 00b2 284C     		ldr	r4, .L13
 159 00b4 0022     		movs	r2, #0
 160 00b6 4FF40051 		mov	r1, #8192
 161 00ba 2046     		mov	r0, r4
 162              	.LVL21:
  38:Core/Src/LED_Driver.c **** 		HAL_GPIO_WritePin(GPIOC, GPIO_PIN_13, GPIO_PIN_RESET);
 163              		.loc 1 38 3 is_stmt 0 view .LVU25
 164 00bc FFF7FEFF 		bl	HAL_GPIO_WritePin
 165              	.LVL22:
  39:Core/Src/LED_Driver.c **** 		HAL_GPIO_WritePin(GPIOC, GPIO_PIN_14, GPIO_PIN_RESET);
 166              		.loc 1 39 3 is_stmt 1 view .LVU26
 167 00c0 0022     		movs	r2, #0
 168 00c2 4FF48041 		mov	r1, #16384
 169 00c6 2046     		mov	r0, r4
 170 00c8 FFF7FEFF 		bl	HAL_GPIO_WritePin
 171              	.LVL23:
  40:Core/Src/LED_Driver.c **** 		HAL_GPIO_WritePin(GPIOC, GPIO_PIN_15, GPIO_PIN_SET);
 172              		.loc 1 40 3 view .LVU27
 173 00cc 0122     		movs	r2, #1
 174 00ce 4FF40041 		mov	r1, #32768
 175 00d2 2046     		mov	r0, r4
 176 00d4 FFF7FEFF 		bl	HAL_GPIO_WritePin
 177              	.LVL24:
  41:Core/Src/LED_Driver.c **** 		break;
 178              		.loc 1 41 3 view .LVU28
 179 00d8 AEE7     		b	.L1
 180              	.LVL25:
 181              	.L6:
  43:Core/Src/LED_Driver.c **** 		HAL_GPIO_WritePin(GPIOC, GPIO_PIN_13, GPIO_PIN_SET);
 182              		.loc 1 43 3 view .LVU29
 183 00da 1E4C     		ldr	r4, .L13
 184 00dc 0122     		movs	r2, #1
 185 00de 4FF40051 		mov	r1, #8192
 186 00e2 2046     		mov	r0, r4
 187              	.LVL26:
  43:Core/Src/LED_Driver.c **** 		HAL_GPIO_WritePin(GPIOC, GPIO_PIN_13, GPIO_PIN_SET);
 188              		.loc 1 43 3 is_stmt 0 view .LVU30
 189 00e4 FFF7FEFF 		bl	HAL_GPIO_WritePin
 190              	.LVL27:
  44:Core/Src/LED_Driver.c **** 		HAL_GPIO_WritePin(GPIOC, GPIO_PIN_14, GPIO_PIN_RESET);
 191              		.loc 1 44 3 is_stmt 1 view .LVU31
 192 00e8 0022     		movs	r2, #0
 193 00ea 4FF48041 		mov	r1, #16384
 194 00ee 2046     		mov	r0, r4
 195 00f0 FFF7FEFF 		bl	HAL_GPIO_WritePin
 196              	.LVL28:
  45:Core/Src/LED_Driver.c **** 		HAL_GPIO_WritePin(GPIOC, GPIO_PIN_15, GPIO_PIN_SET);
 197              		.loc 1 45 3 view .LVU32
 198 00f4 0122     		movs	r2, #1
 199 00f6 4FF40041 		mov	r1, #32768
 200 00fa 2046     		mov	r0, r4
ARM GAS  /tmp/ccBRsSd4.s 			page 6


 201 00fc FFF7FEFF 		bl	HAL_GPIO_WritePin
 202              	.LVL29:
  46:Core/Src/LED_Driver.c **** 		break;
 203              		.loc 1 46 3 view .LVU33
 204 0100 9AE7     		b	.L1
 205              	.LVL30:
 206              	.L5:
  48:Core/Src/LED_Driver.c **** 		HAL_GPIO_WritePin(GPIOC, GPIO_PIN_13, GPIO_PIN_RESET);
 207              		.loc 1 48 3 view .LVU34
 208 0102 144C     		ldr	r4, .L13
 209 0104 0022     		movs	r2, #0
 210 0106 4FF40051 		mov	r1, #8192
 211 010a 2046     		mov	r0, r4
 212              	.LVL31:
  48:Core/Src/LED_Driver.c **** 		HAL_GPIO_WritePin(GPIOC, GPIO_PIN_13, GPIO_PIN_RESET);
 213              		.loc 1 48 3 is_stmt 0 view .LVU35
 214 010c FFF7FEFF 		bl	HAL_GPIO_WritePin
 215              	.LVL32:
  49:Core/Src/LED_Driver.c **** 		HAL_GPIO_WritePin(GPIOC, GPIO_PIN_14, GPIO_PIN_SET);
 216              		.loc 1 49 3 is_stmt 1 view .LVU36
 217 0110 0122     		movs	r2, #1
 218 0112 4FF48041 		mov	r1, #16384
 219 0116 2046     		mov	r0, r4
 220 0118 FFF7FEFF 		bl	HAL_GPIO_WritePin
 221              	.LVL33:
  50:Core/Src/LED_Driver.c **** 		HAL_GPIO_WritePin(GPIOC, GPIO_PIN_15, GPIO_PIN_SET);
 222              		.loc 1 50 3 view .LVU37
 223 011c 0122     		movs	r2, #1
 224 011e 4FF40041 		mov	r1, #32768
 225 0122 2046     		mov	r0, r4
 226 0124 FFF7FEFF 		bl	HAL_GPIO_WritePin
 227              	.LVL34:
  52:Core/Src/LED_Driver.c **** 		break;
 228              		.loc 1 52 3 view .LVU38
 229 0128 86E7     		b	.L1
 230              	.LVL35:
 231              	.L3:
  54:Core/Src/LED_Driver.c **** 		HAL_GPIO_WritePin(GPIOC, GPIO_PIN_13, GPIO_PIN_SET);
 232              		.loc 1 54 3 view .LVU39
 233 012a 0A4C     		ldr	r4, .L13
 234 012c 0122     		movs	r2, #1
 235 012e 4FF40051 		mov	r1, #8192
 236 0132 2046     		mov	r0, r4
 237              	.LVL36:
  54:Core/Src/LED_Driver.c **** 		HAL_GPIO_WritePin(GPIOC, GPIO_PIN_13, GPIO_PIN_SET);
 238              		.loc 1 54 3 is_stmt 0 view .LVU40
 239 0134 FFF7FEFF 		bl	HAL_GPIO_WritePin
 240              	.LVL37:
  55:Core/Src/LED_Driver.c **** 		HAL_GPIO_WritePin(GPIOC, GPIO_PIN_14, GPIO_PIN_SET);
 241              		.loc 1 55 3 is_stmt 1 view .LVU41
 242 0138 0122     		movs	r2, #1
 243 013a 4FF48041 		mov	r1, #16384
 244 013e 2046     		mov	r0, r4
 245 0140 FFF7FEFF 		bl	HAL_GPIO_WritePin
 246              	.LVL38:
  56:Core/Src/LED_Driver.c **** 		HAL_GPIO_WritePin(GPIOC, GPIO_PIN_15, GPIO_PIN_SET);
 247              		.loc 1 56 3 view .LVU42
ARM GAS  /tmp/ccBRsSd4.s 			page 7


 248 0144 0122     		movs	r2, #1
 249 0146 4FF40041 		mov	r1, #32768
 250 014a 2046     		mov	r0, r4
 251 014c FFF7FEFF 		bl	HAL_GPIO_WritePin
 252              	.LVL39:
  58:Core/Src/LED_Driver.c **** 		break;
 253              		.loc 1 58 3 view .LVU43
 254              		.loc 1 62 1 is_stmt 0 view .LVU44
 255 0150 72E7     		b	.L1
 256              	.L14:
 257 0152 00BF     		.align	2
 258              	.L13:
 259 0154 00080240 		.word	1073874944
 260              		.cfi_endproc
 261              	.LFE216:
 263              		.text
 264              	.Letext0:
 265              		.file 2 "/usr/lib/gcc/arm-none-eabi/9.2.1/include/stdint.h"
 266              		.file 3 "Drivers/CMSIS/Include/core_cm4.h"
 267              		.file 4 "Drivers/CMSIS/Device/ST/STM32F4xx/Include/system_stm32f4xx.h"
 268              		.file 5 "Drivers/CMSIS/Device/ST/STM32F4xx/Include/stm32f412cx.h"
 269              		.file 6 "Drivers/STM32F4xx_HAL_Driver/Inc/stm32f4xx_hal_gpio.h"
 270              		.file 7 "Drivers/STM32F4xx_HAL_Driver/Inc/stm32f4xx_hal.h"
ARM GAS  /tmp/ccBRsSd4.s 			page 8


DEFINED SYMBOLS
                            *ABS*:0000000000000000 LED_Driver.c
     /tmp/ccBRsSd4.s:18     .text.ChangeLED:0000000000000000 $t
     /tmp/ccBRsSd4.s:26     .text.ChangeLED:0000000000000000 ChangeLED
     /tmp/ccBRsSd4.s:45     .text.ChangeLED:000000000000000a $d
     /tmp/ccBRsSd4.s:53     .text.ChangeLED:0000000000000012 $t
     /tmp/ccBRsSd4.s:259    .text.ChangeLED:0000000000000154 $d

UNDEFINED SYMBOLS
HAL_GPIO_WritePin
